; Function Attrs: nounwind uwtable
define hidden ptr @opj_get_cstr_info(ptr noundef readonly %0) local_unnamed_addr #2 {
  %.not = icmp eq ptr %0, null
  br i1 %.not, label %8, label %2

2:                                                ; preds = %1
  %3 = getelementptr inbounds nuw i8, ptr %0, i64 168
  %4 = load ptr, ptr %3, align 8, !tbaa !17
  %5 = getelementptr inbounds nuw i8, ptr %0, i64 96
  %6 = load ptr, ptr %5, align 8, !tbaa !21
  %7 = tail call ptr %4(ptr noundef %6) #8
  br label %8

8:                                                ; preds = %1, %2
  %.0 = phi ptr [ %7, %2 ], [ null, %1 ]
  ret ptr %.0
}